target datalayout = "e-m:e-p270:32:32-p271:32:32-p272:64:64-i64:64-i128:128-f80:128-n8:16:32:64-S128"
target triple = "x86_64-pc-linux-gnu"

@.str = private unnamed_addr constant [12 x i8] c"randpktdump\00", align 1
@.str.1 = private unnamed_addr constant [21 x i8] c"extcap/randpktdump.c\00", align 1
@.str.6 = private unnamed_addr constant [8 x i8] c"randpkt\00", align 1
@__func__.list_config = private unnamed_addr constant [12 x i8] c"list_config\00", align 1
@.str.58 = private unnamed_addr constant [24 x i8] c"No interface specified.\00", align 1
@.str.59 = private unnamed_addr constant [21 x i8] c"Interface must be %s\00", align 1
@.str.60 = private unnamed_addr constant [153 x i8] c"arg {number=%u}{call=--maxbytes}{display=Max bytes in a packet}{type=unsigned}{range=1,5000}{default=5000}{tooltip=The max number of bytes in a packet}\0A\00", align 1
@.str.61 = private unnamed_addr constant [122 x i8] c"arg {number=%u}{call=--count}{display=Number of packets}{type=long}{default=1000}{tooltip=Number of packets to generate}\0A\00", align 1
@.str.62 = private unnamed_addr constant [136 x i8] c"arg {number=%u}{call=--delay}{display=Packet delay (ms)}{type=long}{default=0}{tooltip=Milliseconds to wait after writing each packet}\0A\00", align 1
@.str.63 = private unnamed_addr constant [133 x i8] c"arg {number=%u}{call=--random-type}{display=Random type}{type=boolflag}{default=false}{tooltip=The packets type is randomly chosen}\0A\00", align 1
@.str.64 = private unnamed_addr constant [150 x i8] c"arg {number=%u}{call=--all-random}{display=All random packets}{type=boolflag}{default=false}{tooltip=Packet type for each packet is randomly chosen}\0A\00", align 1
@.str.65 = private unnamed_addr constant [105 x i8] c"arg {number=%u}{call=--type}{display=Type of packet}{type=selector}{tooltip=Type of packet to generate}\0A\00", align 1
@.str.66 = private unnamed_addr constant [38 x i8] c"value {arg=%u}{value=%s}{display=%s}\0A\00", align 1

; Function Attrs: null_pointer_is_valid sspstrong uwtable
define internal i32 @list_config(ptr noundef %0) #0 {
  %2 = alloca i32, align 4
  %3 = alloca ptr, align 8
  %4 = alloca i32, align 4
  %5 = alloca i32, align 4
  %6 = alloca ptr, align 8
  %7 = alloca ptr, align 8
  %8 = alloca i32, align 4
  store ptr %0, ptr %3, align 8
  call void @llvm.lifetime.start.p0(i64 4, ptr %4) #6
  store i32 0, ptr %4, align 4
  call void @llvm.lifetime.start.p0(i64 4, ptr %5) #6
  store i32 0, ptr %5, align 4
  call void @llvm.lifetime.start.p0(i64 8, ptr %6) #6
  call void @llvm.lifetime.start.p0(i64 8, ptr %7) #6
  %9 = load ptr, ptr %3, align 8
  %10 = icmp ne ptr %9, null
  br i1 %10, label %15, label %11

11:                                               ; preds = %1
  br label %12

12:                                               ; preds = %11
  call void (ptr, i32, ptr, i64, ptr, ptr, ...) @ws_log_full(ptr noundef @.str, i32 noundef 5, ptr noundef @.str.1, i64 noundef 87, ptr noundef @__func__.list_config, ptr noundef @.str.58)
  br label %13

13:                                               ; preds = %12
  br label %14

14:                                               ; preds = %13
  store i32 1, ptr %2, align 4
  store i32 1, ptr %8, align 4
  br label %77

15:                                               ; preds = %1
  %16 = load ptr, ptr %3, align 8
  %17 = call i32 @g_strcmp0(ptr noundef %16, ptr noundef @.str.6)
  %18 = icmp ne i32 %17, 0
  br i1 %18, label %19, label %23

19:                                               ; preds = %15
  br label %20

20:                                               ; preds = %19
  call void (ptr, i32, ptr, i64, ptr, ptr, ...) @ws_log_full(ptr noundef @.str, i32 noundef 5, ptr noundef @.str.1, i64 noundef 92, ptr noundef @__func__.list_config, ptr noundef @.str.59, ptr noundef @.str.6)
  br label %21

21:                                               ; preds = %20
  br label %22

22:                                               ; preds = %21
  store i32 1, ptr %2, align 4
  store i32 1, ptr %8, align 4
  br label %77

23:                                               ; preds = %15
  %24 = load i32, ptr %4, align 4
  %25 = add i32 %24, 1
  store i32 %25, ptr %4, align 4
  %26 = call i32 (i32, ptr, ...) @__printf_chk(i32 noundef 2, ptr noundef @.str.60, i32 noundef %24)
  %27 = load i32, ptr %4, align 4
  %28 = add i32 %27, 1
  store i32 %28, ptr %4, align 4
  %29 = call i32 (i32, ptr, ...) @__printf_chk(i32 noundef 2, ptr noundef @.str.61, i32 noundef %27)
  %30 = load i32, ptr %4, align 4
  %31 = add i32 %30, 1
  store i32 %31, ptr %4, align 4
  %32 = call i32 (i32, ptr, ...) @__printf_chk(i32 noundef 2, ptr noundef @.str.62, i32 noundef %30)
  %33 = load i32, ptr %4, align 4
  %34 = add i32 %33, 1
  store i32 %34, ptr %4, align 4
  %35 = call i32 (i32, ptr, ...) @__printf_chk(i32 noundef 2, ptr noundef @.str.63, i32 noundef %33)
  %36 = load i32, ptr %4, align 4
  %37 = add i32 %36, 1
  store i32 %37, ptr %4, align 4
  %38 = call i32 (i32, ptr, ...) @__printf_chk(i32 noundef 2, ptr noundef @.str.64, i32 noundef %36)
  %39 = load i32, ptr %4, align 4
  %40 = call i32 (i32, ptr, ...) @__printf_chk(i32 noundef 2, ptr noundef @.str.65, i32 noundef %39)
  call void @randpkt_example_list(ptr noundef %6, ptr noundef %7)
  br label %41

41:                                               ; preds = %57, %23
  %42 = load ptr, ptr %6, align 8
  %43 = load i32, ptr %5, align 4
  %44 = zext i32 %43 to i64
  %45 = getelementptr ptr, ptr %42, i64 %44
  %46 = load ptr, ptr %45, align 8
  %47 = icmp ne ptr %46, null
  br i1 %47, label %48, label %55

48:                                               ; preds = %41
  %49 = load ptr, ptr %7, align 8
  %50 = load i32, ptr %5, align 4
  %51 = zext i32 %50 to i64
  %52 = getelementptr ptr, ptr %49, i64 %51
  %53 = load ptr, ptr %52, align 8
  %54 = icmp ne ptr %53, null
  br label %55

55:                                               ; preds = %48, %41
  %56 = phi i1 [ false, %41 ], [ %54, %48 ]
  br i1 %56, label %57, label %72

57:                                               ; preds = %55
  %58 = load i32, ptr %4, align 4
  %59 = load ptr, ptr %6, align 8
  %60 = load i32, ptr %5, align 4
  %61 = zext i32 %60 to i64
  %62 = getelementptr ptr, ptr %59, i64 %61
  %63 = load ptr, ptr %62, align 8
  %64 = load ptr, ptr %7, align 8
  %65 = load i32, ptr %5, align 4
  %66 = zext i32 %65 to i64
  %67 = getelementptr ptr, ptr %64, i64 %66
  %68 = load ptr, ptr %67, align 8
  %69 = call i32 (i32, ptr, ...) @__printf_chk(i32 noundef 2, ptr noundef @.str.66, i32 noundef %58, ptr noundef %63, ptr noundef %68)
  %70 = load i32, ptr %5, align 4
  %71 = add i32 %70, 1
  store i32 %71, ptr %5, align 4
  br label %41, !llvm.loop !13

72:                                               ; preds = %55
  %73 = load ptr, ptr %6, align 8
  call void @g_strfreev(ptr noundef %73)
  %74 = load ptr, ptr %7, align 8
  call void @g_strfreev(ptr noundef %74)
  %75 = load i32, ptr %4, align 4
  %76 = add i32 %75, 1
  store i32 %76, ptr %4, align 4
  call void @extcap_config_debug(ptr noundef %4)
  store i32 0, ptr %2, align 4
  store i32 1, ptr %8, align 4
  br label %77

77:                                               ; preds = %72, %22, %14
  call void @llvm.lifetime.end.p0(i64 8, ptr %7) #6
  call void @llvm.lifetime.end.p0(i64 8, ptr %6) #6
  call void @llvm.lifetime.end.p0(i64 4, ptr %5) #6
  call void @llvm.lifetime.end.p0(i64 4, ptr %4) #6
  %78 = load i32, ptr %2, align 4
  ret i32 %78
}