; Function Attrs: null_pointer_is_valid sspstrong uwtable
define internal fastcc range(i32 0, 2) i32 @list_config(ptr noundef %0) unnamed_addr #0 {
  %2 = alloca i32, align 4
  %3 = alloca ptr, align 8
  %4 = alloca ptr, align 8
  call void @llvm.lifetime.start.p0(i64 4, ptr nonnull %2) #4
  call void @llvm.lifetime.start.p0(i64 8, ptr nonnull %3) #4
  call void @llvm.lifetime.start.p0(i64 8, ptr nonnull %4) #4
  %.not = icmp eq ptr %0, null
  br i1 %.not, label %5, label %6

5:                                                ; preds = %1
  tail call void (ptr, i32, ptr, i64, ptr, ptr, ...) @ws_log_full(ptr noundef nonnull @.str, i32 noundef 5, ptr noundef nonnull @.str.1, i64 noundef 87, ptr noundef nonnull @__func__.list_config, ptr noundef nonnull @.str.58)
  br label %34

6:                                                ; preds = %1
  %7 = tail call i32 @g_strcmp0(ptr noundef nonnull %0, ptr noundef nonnull @.str.6)
  %.not11 = icmp eq i32 %7, 0
  br i1 %.not11, label %9, label %8

8:                                                ; preds = %6
  tail call void (ptr, i32, ptr, i64, ptr, ptr, ...) @ws_log_full(ptr noundef nonnull @.str, i32 noundef 5, ptr noundef nonnull @.str.1, i64 noundef 92, ptr noundef nonnull @__func__.list_config, ptr noundef nonnull @.str.59, ptr noundef nonnull @.str.6)
  br label %34

9:                                                ; preds = %6
  %10 = tail call i32 (i32, ptr, ...) @__printf_chk(i32 noundef 2, ptr noundef nonnull @.str.60, i32 noundef 0)
  %11 = tail call i32 (i32, ptr, ...) @__printf_chk(i32 noundef 2, ptr noundef nonnull @.str.61, i32 noundef 1)
  %12 = tail call i32 (i32, ptr, ...) @__printf_chk(i32 noundef 2, ptr noundef nonnull @.str.62, i32 noundef 2)
  %13 = tail call i32 (i32, ptr, ...) @__printf_chk(i32 noundef 2, ptr noundef nonnull @.str.63, i32 noundef 3)
  store i32 5, ptr %2, align 4
  %14 = tail call i32 (i32, ptr, ...) @__printf_chk(i32 noundef 2, ptr noundef nonnull @.str.64, i32 noundef 4)
  %15 = tail call i32 (i32, ptr, ...) @__printf_chk(i32 noundef 2, ptr noundef nonnull @.str.65, i32 noundef 5)
  call void @randpkt_example_list(ptr noundef nonnull %3, ptr noundef nonnull %4)
  %16 = load ptr, ptr %3, align 8
  %17 = load ptr, ptr %16, align 8
  %.not1214 = icmp eq ptr %17, null
  br i1 %.not1214, label %.critedge, label %.lr.ph.preheader

.lr.ph.preheader:                                 ; preds = %9
  %18 = load ptr, ptr %4, align 8
  %19 = load ptr, ptr %18, align 8
  %.not1318 = icmp eq ptr %19, null
  br i1 %.not1318, label %.critedge, label %.lr.ph20

.lr.ph:                                           ; preds = %.lr.ph20
  %20 = load ptr, ptr %4, align 8
  %21 = getelementptr ptr, ptr %20, i64 %28
  %22 = load ptr, ptr %21, align 8
  %.not13 = icmp eq ptr %22, null
  br i1 %.not13, label %.critedge, label %.lr.ph20, !llvm.loop !11

.lr.ph20:                                         ; preds = %.lr.ph.preheader, %.lr.ph
  %23 = phi ptr [ %22, %.lr.ph ], [ %19, %.lr.ph.preheader ]
  %.01519 = phi i32 [ %26, %.lr.ph ], [ 0, %.lr.ph.preheader ]
  %24 = phi ptr [ %30, %.lr.ph ], [ %17, %.lr.ph.preheader ]
  %25 = call i32 (i32, ptr, ...) @__printf_chk(i32 noundef 2, ptr noundef nonnull @.str.66, i32 noundef 5, ptr noundef nonnull %24, ptr noundef nonnull %23)
  %26 = add i32 %.01519, 1
  %27 = load ptr, ptr %3, align 8
  %28 = zext i32 %26 to i64
  %29 = getelementptr ptr, ptr %27, i64 %28
  %30 = load ptr, ptr %29, align 8
  %.not12 = icmp eq ptr %30, null
  br i1 %.not12, label %.critedge, label %.lr.ph, !llvm.loop !11

.critedge:                                        ; preds = %.lr.ph20, %.lr.ph, %.lr.ph.preheader, %9
  %.lcssa = phi ptr [ %16, %9 ], [ %16, %.lr.ph.preheader ], [ %27, %.lr.ph ], [ %27, %.lr.ph20 ]
  call void @g_strfreev(ptr noundef %.lcssa)
  %31 = load ptr, ptr %4, align 8
  call void @g_strfreev(ptr noundef %31)
  %32 = load i32, ptr %2, align 4
  %33 = add i32 %32, 1
  store i32 %33, ptr %2, align 4
  call void @extcap_config_debug(ptr noundef nonnull %2)
  br label %34

34:                                               ; preds = %.critedge, %8, %5
  %.07 = phi i32 [ 1, %8 ], [ 0, %.critedge ], [ 1, %5 ]
  call void @llvm.lifetime.end.p0(i64 8, ptr nonnull %4) #4
  call void @llvm.lifetime.end.p0(i64 8, ptr nonnull %3) #4
  call void @llvm.lifetime.end.p0(i64 4, ptr nonnull %2) #4
  ret i32 %.07
}